; Function Attrs: mustprogress uwtable
define internal void @_ZNK12_GLOBAL__N_120FileHasSubstrMatcher10DescribeToEPSo(ptr noundef nonnull align 8 dereferenceable(40) %this, ptr noundef nonnull %os) unnamed_addr #3 align 2 personality ptr @__gxx_personality_v0 {
entry:
  %ref.tmp1.i = alloca %"class.absl::log_internal::LogMessageFatal", align 8
  %ref.tmp = alloca %"class.std::__cxx11::basic_string", align 8
  %call = tail call noundef nonnull align 8 dereferenceable(8) ptr @_ZStlsISt11char_traitsIcEERSt13basic_ostreamIcT_ES5_PKc(ptr noundef nonnull align 8 dereferenceable(8) %os, ptr noundef nonnull @.str.54)
  %needle_ = getelementptr inbounds i8, ptr %this, i64 8
  %call2 = tail call noundef nonnull align 8 dereferenceable(8) ptr @_ZStlsIcSt11char_traitsIcESaIcEERSt13basic_ostreamIT_T0_ES7_RKNSt7__cxx1112basic_stringIS4_S5_T1_EE(ptr noundef nonnull align 8 dereferenceable(8) %call, ptr noundef nonnull align 8 dereferenceable(32) %needle_)
  %call3 = tail call noundef nonnull align 8 dereferenceable(8) ptr @_ZStlsISt11char_traitsIcEERSt13basic_ostreamIcT_ES5_PKc(ptr noundef nonnull align 8 dereferenceable(8) %call2, ptr noundef nonnull @.str.55)
  %call5 = tail call { i64, ptr } @_ZNKSt7__cxx1112basic_stringIcSt11char_traitsIcESaIcEEcvSt17basic_string_viewIcS2_EEv(ptr noundef nonnull align 8 dereferenceable(32) %needle_) #28
  %0 = extractvalue { i64, ptr } %call5, 0
  %1 = extractvalue { i64, ptr } %call5, 1
  call void @llvm.lifetime.start.p0(i64 16, ptr nonnull %ref.tmp1.i)
  call void @_ZNSt7__cxx1112basic_stringIcSt11char_traitsIcESaIcEEC1Ev(ptr noundef nonnull align 8 dereferenceable(32) %ref.tmp) #28
  %call.i = invoke noundef zeroext i1 @_ZN4absl14Base64UnescapeESt17basic_string_viewIcSt11char_traitsIcEEPNSt7__cxx1112basic_stringIcS2_SaIcEEE(i64 %0, ptr %1, ptr noundef nonnull %ref.tmp)
          to label %invoke.cont.i unwind label %lpad.i

invoke.cont.i:                                    ; preds = %entry
  br i1 %call.i, label %_ZN12_GLOBAL__N_119Base64UnescapeOrDieB5cxx11ESt17basic_string_viewIcSt11char_traitsIcEE.exit, label %cond.false.i

cond.false.i:                                     ; preds = %invoke.cont.i
  invoke void @_ZN4absl12log_internal15LogMessageFatalC1EPKciSt17basic_string_viewIcSt11char_traitsIcEE(ptr noundef nonnull align 8 dereferenceable(16) %ref.tmp1.i, ptr noundef nonnull @.str.3, i32 noundef 75, i64 36, ptr nonnull @.str.44) #31
          to label %cleanup.action.i unwind label %lpad.i

cleanup.action.i:                                 ; preds = %cond.false.i
  call void @_ZN4absl12log_internal15LogMessageFatalD1Ev(ptr noundef nonnull align 8 dereferenceable(16) %ref.tmp1.i) #32
  unreachable

common.resume:                                    ; preds = %lpad, %lpad.i
  %common.resume.op = phi { ptr, i32 } [ %2, %lpad.i ], [ %3, %lpad ]
  call void @_ZNSt7__cxx1112basic_stringIcSt11char_traitsIcESaIcEED1Ev(ptr noundef nonnull align 8 dereferenceable(32) %ref.tmp) #28
  resume { ptr, i32 } %common.resume.op

lpad.i:                                           ; preds = %cond.false.i, %entry
  %2 = landingpad { ptr, i32 }
          cleanup
  br label %common.resume

_ZN12_GLOBAL__N_119Base64UnescapeOrDieB5cxx11ESt17basic_string_viewIcSt11char_traitsIcEE.exit: ; preds = %invoke.cont.i
  call void @llvm.lifetime.end.p0(i64 16, ptr nonnull %ref.tmp1.i)
  %call6 = invoke noundef nonnull align 8 dereferenceable(8) ptr @_ZStlsIcSt11char_traitsIcESaIcEERSt13basic_ostreamIT_T0_ES7_RKNSt7__cxx1112basic_stringIS4_S5_T1_EE(ptr noundef nonnull align 8 dereferenceable(8) %call3, ptr noundef nonnull align 8 dereferenceable(32) %ref.tmp)
          to label %invoke.cont unwind label %lpad

invoke.cont:                                      ; preds = %_ZN12_GLOBAL__N_119Base64UnescapeOrDieB5cxx11ESt17basic_string_viewIcSt11char_traitsIcEE.exit
  %call8 = invoke noundef nonnull align 8 dereferenceable(8) ptr @_ZStlsISt11char_traitsIcEERSt13basic_ostreamIcT_ES5_PKc(ptr noundef nonnull align 8 dereferenceable(8) %call6, ptr noundef nonnull @.str.56)
          to label %invoke.cont7 unwind label %lpad

invoke.cont7:                                     ; preds = %invoke.cont
  call void @_ZNSt7__cxx1112basic_stringIcSt11char_traitsIcESaIcEED1Ev(ptr noundef nonnull align 8 dereferenceable(32) %ref.tmp) #28
  ret void

lpad:                                             ; preds = %invoke.cont, %_ZN12_GLOBAL__N_119Base64UnescapeOrDieB5cxx11ESt17basic_string_viewIcSt11char_traitsIcEE.exit
  %3 = landingpad { ptr, i32 }
          cleanup
  br label %common.resume
}